target datalayout = "e-m:e-p270:32:32-p271:32:32-p272:64:64-i64:64-i128:128-f80:128-n8:16:32:64-S128"
target triple = "x86_64-pc-linux-gnu"

%struct.Vec_Int_t_ = type { i32, i32, ptr }

; Function Attrs: inlinehint nounwind uwtable
define internal void @Vec_IntGrow(ptr noundef %0, i32 noundef %1) #1 {
  %3 = alloca ptr, align 8
  %4 = alloca i32, align 4
  store ptr %0, ptr %3, align 8, !tbaa !10
  store i32 %1, ptr %4, align 4, !tbaa !12
  %5 = load ptr, ptr %3, align 8, !tbaa !10
  %6 = getelementptr inbounds nuw %struct.Vec_Int_t_, ptr %5, i32 0, i32 0
  %7 = load i32, ptr %6, align 8, !tbaa !43
  %8 = load i32, ptr %4, align 4, !tbaa !12
  %9 = icmp sge i32 %7, %8
  br i1 %9, label %10, label %11

10:                                               ; preds = %2
  br label %36

11:                                               ; preds = %2
  %12 = load ptr, ptr %3, align 8, !tbaa !10
  %13 = getelementptr inbounds nuw %struct.Vec_Int_t_, ptr %12, i32 0, i32 2
  %14 = load ptr, ptr %13, align 8, !tbaa !44
  %15 = icmp ne ptr %14, null
  br i1 %15, label %16, label %24

16:                                               ; preds = %11
  %17 = load ptr, ptr %3, align 8, !tbaa !10
  %18 = getelementptr inbounds nuw %struct.Vec_Int_t_, ptr %17, i32 0, i32 2
  %19 = load ptr, ptr %18, align 8, !tbaa !44
  %20 = load i32, ptr %4, align 4, !tbaa !12
  %21 = sext i32 %20 to i64
  %22 = mul i64 4, %21
  %23 = call ptr @realloc(ptr noundef %19, i64 noundef %22) #13
  br label %29

24:                                               ; preds = %11
  %25 = load i32, ptr %4, align 4, !tbaa !12
  %26 = sext i32 %25 to i64
  %27 = mul i64 4, %26
  %28 = call noalias ptr @malloc(i64 noundef %27) #11
  br label %29

29:                                               ; preds = %24, %16
  %30 = phi ptr [ %23, %16 ], [ %28, %24 ]
  %31 = load ptr, ptr %3, align 8, !tbaa !10
  %32 = getelementptr inbounds nuw %struct.Vec_Int_t_, ptr %31, i32 0, i32 2
  store ptr %30, ptr %32, align 8, !tbaa !44
  %33 = load i32, ptr %4, align 4, !tbaa !12
  %34 = load ptr, ptr %3, align 8, !tbaa !10
  %35 = getelementptr inbounds nuw %struct.Vec_Int_t_, ptr %34, i32 0, i32 0
  store i32 %33, ptr %35, align 8, !tbaa !43
  br label %36

36:                                               ; preds = %29, %10
  ret void
}

; Function Attrs: inlinehint nounwind uwtable
define internal void @Vec_IntFree(ptr noundef %0) #1 {
  %2 = alloca ptr, align 8
  store ptr %0, ptr %2, align 8, !tbaa !10
  %3 = load ptr, ptr %2, align 8, !tbaa !10
  %4 = getelementptr inbounds nuw %struct.Vec_Int_t_, ptr %3, i32 0, i32 2
  %5 = load ptr, ptr %4, align 8, !tbaa !44
  %6 = icmp ne ptr %5, null
  br i1 %6, label %7, label %13

7:                                                ; preds = %1
  %8 = load ptr, ptr %2, align 8, !tbaa !10
  %9 = getelementptr inbounds nuw %struct.Vec_Int_t_, ptr %8, i32 0, i32 2
  %10 = load ptr, ptr %9, align 8, !tbaa !44
  call void @free(ptr noundef %10) #10
  %11 = load ptr, ptr %2, align 8, !tbaa !10
  %12 = getelementptr inbounds nuw %struct.Vec_Int_t_, ptr %11, i32 0, i32 2
  store ptr null, ptr %12, align 8, !tbaa !44
  br label %14

13:                                               ; preds = %1
  br label %14

14:                                               ; preds = %13, %7
  %15 = load ptr, ptr %2, align 8, !tbaa !10
  %16 = icmp ne ptr %15, null
  br i1 %16, label %17, label %19

17:                                               ; preds = %14
  %18 = load ptr, ptr %2, align 8, !tbaa !10
  call void @free(ptr noundef %18) #10
  store ptr null, ptr %2, align 8, !tbaa !10
  br label %20

19:                                               ; preds = %14
  br label %20

20:                                               ; preds = %19, %17
  ret void
}

; Function Attrs: inlinehint nounwind uwtable
define internal void @Vec_IntPush(ptr noundef %0, i32 noundef %1) #1 {
  %3 = alloca ptr, align 8
  %4 = alloca i32, align 4
  store ptr %0, ptr %3, align 8, !tbaa !10
  store i32 %1, ptr %4, align 4, !tbaa !12
  %5 = load ptr, ptr %3, align 8, !tbaa !10
  %6 = getelementptr inbounds nuw %struct.Vec_Int_t_, ptr %5, i32 0, i32 1
  %7 = load i32, ptr %6, align 4, !tbaa !42
  %8 = load ptr, ptr %3, align 8, !tbaa !10
  %9 = getelementptr inbounds nuw %struct.Vec_Int_t_, ptr %8, i32 0, i32 0
  %10 = load i32, ptr %9, align 8, !tbaa !43
  %11 = icmp eq i32 %7, %10
  br i1 %11, label %12, label %26

12:                                               ; preds = %2
  %13 = load ptr, ptr %3, align 8, !tbaa !10
  %14 = getelementptr inbounds nuw %struct.Vec_Int_t_, ptr %13, i32 0, i32 0
  %15 = load i32, ptr %14, align 8, !tbaa !43
  %16 = icmp slt i32 %15, 16
  br i1 %16, label %17, label %19

17:                                               ; preds = %12
  %18 = load ptr, ptr %3, align 8, !tbaa !10
  call void @Vec_IntGrow(ptr noundef %18, i32 noundef 16)
  br label %25

19:                                               ; preds = %12
  %20 = load ptr, ptr %3, align 8, !tbaa !10
  %21 = load ptr, ptr %3, align 8, !tbaa !10
  %22 = getelementptr inbounds nuw %struct.Vec_Int_t_, ptr %21, i32 0, i32 0
  %23 = load i32, ptr %22, align 8, !tbaa !43
  %24 = mul nsw i32 2, %23
  call void @Vec_IntGrow(ptr noundef %20, i32 noundef %24)
  br label %25

25:                                               ; preds = %19, %17
  br label %26

26:                                               ; preds = %25, %2
  %27 = load i32, ptr %4, align 4, !tbaa !12
  %28 = load ptr, ptr %3, align 8, !tbaa !10
  %29 = getelementptr inbounds nuw %struct.Vec_Int_t_, ptr %28, i32 0, i32 2
  %30 = load ptr, ptr %29, align 8, !tbaa !44
  %31 = load ptr, ptr %3, align 8, !tbaa !10
  %32 = getelementptr inbounds nuw %struct.Vec_Int_t_, ptr %31, i32 0, i32 1
  %33 = load i32, ptr %32, align 4, !tbaa !42
  %34 = add nsw i32 %33, 1
  store i32 %34, ptr %32, align 4, !tbaa !42
  %35 = sext i32 %33 to i64
  %36 = getelementptr inbounds i32, ptr %30, i64 %35
  store i32 %27, ptr %36, align 4, !tbaa !12
  ret void
}

; Function Attrs: inlinehint nounwind uwtable
define internal void @Vec_IntClear(ptr noundef %0) #1 {
  %2 = alloca ptr, align 8
  store ptr %0, ptr %2, align 8, !tbaa !10
  %3 = load ptr, ptr %2, align 8, !tbaa !10
  %4 = getelementptr inbounds nuw %struct.Vec_Int_t_, ptr %3, i32 0, i32 1
  store i32 0, ptr %4, align 4, !tbaa !42
  ret void
}

; Function Attrs: inlinehint nounwind uwtable
define internal i32 @Abc_MaxInt(i32 noundef %0, i32 noundef %1) #1 {
  %3 = alloca i32, align 4
  %4 = alloca i32, align 4
  store i32 %0, ptr %3, align 4, !tbaa !12
  store i32 %1, ptr %4, align 4, !tbaa !12
  %5 = load i32, ptr %3, align 4, !tbaa !12
  %6 = load i32, ptr %4, align 4, !tbaa !12
  %7 = icmp sgt i32 %5, %6
  br i1 %7, label %8, label %10

8:                                                ; preds = %2
  %9 = load i32, ptr %3, align 4, !tbaa !12
  br label %12

10:                                               ; preds = %2
  %11 = load i32, ptr %4, align 4, !tbaa !12
  br label %12

12:                                               ; preds = %10, %8
  %13 = phi i32 [ %9, %8 ], [ %11, %10 ]
  ret i32 %13
}

; Function Attrs: inlinehint nounwind uwtable
define internal i32 @Abc_MinInt(i32 noundef %0, i32 noundef %1) #1 {
  %3 = alloca i32, align 4
  %4 = alloca i32, align 4
  store i32 %0, ptr %3, align 4, !tbaa !12
  store i32 %1, ptr %4, align 4, !tbaa !12
  %5 = load i32, ptr %3, align 4, !tbaa !12
  %6 = load i32, ptr %4, align 4, !tbaa !12
  %7 = icmp slt i32 %5, %6
  br i1 %7, label %8, label %10

8:                                                ; preds = %2
  %9 = load i32, ptr %3, align 4, !tbaa !12
  br label %12

10:                                               ; preds = %2
  %11 = load i32, ptr %4, align 4, !tbaa !12
  br label %12

12:                                               ; preds = %10, %8
  %13 = phi i32 [ %9, %8 ], [ %11, %10 ]
  ret i32 %13
}

; Function Attrs: inlinehint nounwind uwtable
define internal i32 @Vec_IntEntry(ptr noundef %0, i32 noundef %1) #1 {
  %3 = alloca ptr, align 8
  %4 = alloca i32, align 4
  store ptr %0, ptr %3, align 8, !tbaa !10
  store i32 %1, ptr %4, align 4, !tbaa !12
  %5 = load ptr, ptr %3, align 8, !tbaa !10
  %6 = getelementptr inbounds nuw %struct.Vec_Int_t_, ptr %5, i32 0, i32 2
  %7 = load ptr, ptr %6, align 8, !tbaa !44
  %8 = load i32, ptr %4, align 4, !tbaa !12
  %9 = sext i32 %8 to i64
  %10 = getelementptr inbounds i32, ptr %7, i64 %9
  %11 = load i32, ptr %10, align 4, !tbaa !12
  ret i32 %11
}

; Function Attrs: inlinehint nounwind uwtable
define internal i32 @Vec_IntSize(ptr noundef %0) #1 {
  %2 = alloca ptr, align 8
  store ptr %0, ptr %2, align 8, !tbaa !10
  %3 = load ptr, ptr %2, align 8, !tbaa !10
  %4 = getelementptr inbounds nuw %struct.Vec_Int_t_, ptr %3, i32 0, i32 1
  %5 = load i32, ptr %4, align 4, !tbaa !42
  ret i32 %5
}

; Function Attrs: nounwind uwtable
define void @Gia_ManMulFindArg2(ptr noundef %0, ptr noundef %1, ptr noundef %2, i32 noundef %3, i32 noundef %4) #0 {
  %6 = alloca ptr, align 8
  %7 = alloca ptr, align 8
  %8 = alloca ptr, align 8
  %9 = alloca i32, align 4
  %10 = alloca i32, align 4
  %11 = alloca ptr, align 8
  %12 = alloca i32, align 4
  %13 = alloca i32, align 4
  %14 = alloca i32, align 4
  %15 = alloca i32, align 4
  %16 = alloca i32, align 4
  store ptr %0, ptr %6, align 8, !tbaa !33
  store ptr %1, ptr %7, align 8, !tbaa !10
  store ptr %2, ptr %8, align 8, !tbaa !10
  store i32 %3, ptr %9, align 4, !tbaa !12
  store i32 %4, ptr %10, align 4, !tbaa !12
  call void @llvm.lifetime.start.p0(i64 8, ptr %11) #10
  %17 = load ptr, ptr %6, align 8, !tbaa !33
  %18 = load ptr, ptr %7, align 8, !tbaa !10
  %19 = call ptr @Gia_ManMulFindCounts(ptr noundef %17, ptr noundef %18)
  store ptr %19, ptr %11, align 8, !tbaa !10
  call void @llvm.lifetime.start.p0(i64 4, ptr %12) #10
  call void @llvm.lifetime.start.p0(i64 4, ptr %13) #10
  call void @llvm.lifetime.start.p0(i64 4, ptr %14) #10
  call void @llvm.lifetime.start.p0(i64 4, ptr %15) #10
  store i32 1000000000, ptr %15, align 4, !tbaa !12
  call void @llvm.lifetime.start.p0(i64 4, ptr %16) #10
  store i32 0, ptr %16, align 4, !tbaa !12
  store i32 0, ptr %14, align 4, !tbaa !12
  br label %20

20:                                               ; preds = %44, %5
  %21 = load i32, ptr %14, align 4, !tbaa !12
  %22 = add nsw i32 %21, 1
  %23 = load ptr, ptr %11, align 8, !tbaa !10
  %24 = call i32 @Vec_IntSize(ptr noundef %23)
  %25 = icmp slt i32 %22, %24
  br i1 %25, label %26, label %35

26:                                               ; preds = %20
  %27 = load ptr, ptr %11, align 8, !tbaa !10
  %28 = load i32, ptr %14, align 4, !tbaa !12
  %29 = call i32 @Vec_IntEntry(ptr noundef %27, i32 noundef %28)
  store i32 %29, ptr %12, align 4, !tbaa !12
  br i1 true, label %30, label %35

30:                                               ; preds = %26
  %31 = load ptr, ptr %11, align 8, !tbaa !10
  %32 = load i32, ptr %14, align 4, !tbaa !12
  %33 = add nsw i32 %32, 1
  %34 = call i32 @Vec_IntEntry(ptr noundef %31, i32 noundef %33)
  store i32 %34, ptr %13, align 4, !tbaa !12
  br label %35

35:                                               ; preds = %30, %26, %20
  %36 = phi i1 [ false, %26 ], [ false, %20 ], [ true, %30 ]
  br i1 %36, label %37, label %47

37:                                               ; preds = %35
  %38 = load i32, ptr %15, align 4, !tbaa !12
  %39 = load i32, ptr %13, align 4, !tbaa !12
  %40 = call i32 @Abc_MinInt(i32 noundef %38, i32 noundef %39)
  store i32 %40, ptr %15, align 4, !tbaa !12
  %41 = load i32, ptr %16, align 4, !tbaa !12
  %42 = load i32, ptr %13, align 4, !tbaa !12
  %43 = call i32 @Abc_MaxInt(i32 noundef %41, i32 noundef %42)
  store i32 %43, ptr %16, align 4, !tbaa !12
  br label %44

44:                                               ; preds = %37
  %45 = load i32, ptr %14, align 4, !tbaa !12
  %46 = add nsw i32 %45, 2
  store i32 %46, ptr %14, align 4, !tbaa !12
  br label %20, !llvm.loop !79

47:                                               ; preds = %35
  %48 = load ptr, ptr %8, align 8, !tbaa !10
  call void @Vec_IntClear(ptr noundef %48)
  store i32 0, ptr %14, align 4, !tbaa !12
  br label %49

49:                                               ; preds = %88, %47
  %50 = load i32, ptr %14, align 4, !tbaa !12
  %51 = add nsw i32 %50, 1
  %52 = load ptr, ptr %11, align 8, !tbaa !10
  %53 = call i32 @Vec_IntSize(ptr noundef %52)
  %54 = icmp slt i32 %51, %53
  br i1 %54, label %55, label %64

55:                                               ; preds = %49
  %56 = load ptr, ptr %11, align 8, !tbaa !10
  %57 = load i32, ptr %14, align 4, !tbaa !12
  %58 = call i32 @Vec_IntEntry(ptr noundef %56, i32 noundef %57)
  store i32 %58, ptr %12, align 4, !tbaa !12
  br i1 true, label %59, label %64

59:                                               ; preds = %55
  %60 = load ptr, ptr %11, align 8, !tbaa !10
  %61 = load i32, ptr %14, align 4, !tbaa !12
  %62 = add nsw i32 %61, 1
  %63 = call i32 @Vec_IntEntry(ptr noundef %60, i32 noundef %62)
  store i32 %63, ptr %13, align 4, !tbaa !12
  br label %64

64:                                               ; preds = %59, %55, %49
  %65 = phi i1 [ false, %55 ], [ false, %49 ], [ true, %59 ]
  br i1 %65, label %66, label %91

66:                                               ; preds = %64
  %67 = load i32, ptr %12, align 4, !tbaa !12
  %68 = load i32, ptr %9, align 4, !tbaa !12
  %69 = icmp eq i32 %67, %68
  br i1 %69, label %74, label %70

70:                                               ; preds = %66
  %71 = load i32, ptr %12, align 4, !tbaa !12
  %72 = load i32, ptr %10, align 4, !tbaa !12
  %73 = icmp eq i32 %71, %72
  br i1 %73, label %74, label %87

74:                                               ; preds = %70, %66
  %75 = load ptr, ptr %8, align 8, !tbaa !10
  %76 = load i32, ptr %12, align 4, !tbaa !12
  %77 = load i32, ptr %9, align 4, !tbaa !12
  %78 = icmp eq i32 %76, %77
  br i1 %78, label %79, label %81

79:                                               ; preds = %74
  %80 = load i32, ptr %10, align 4, !tbaa !12
  br label %83

81:                                               ; preds = %74
  %82 = load i32, ptr %9, align 4, !tbaa !12
  br label %83

83:                                               ; preds = %81, %79
  %84 = phi i32 [ %80, %79 ], [ %82, %81 ]
  call void @Vec_IntPush(ptr noundef %75, i32 noundef %84)
  %85 = load ptr, ptr %8, align 8, !tbaa !10
  %86 = load i32, ptr %12, align 4, !tbaa !12
  call void @Vec_IntPush(ptr noundef %85, i32 noundef %86)
  br label %91

87:                                               ; preds = %70
  br label %88

88:                                               ; preds = %87
  %89 = load i32, ptr %14, align 4, !tbaa !12
  %90 = add nsw i32 %89, 2
  store i32 %90, ptr %14, align 4, !tbaa !12
  br label %49, !llvm.loop !80

91:                                               ; preds = %83, %64
  %92 = load ptr, ptr %8, align 8, !tbaa !10
  %93 = call i32 @Vec_IntEntry(ptr noundef %92, i32 noundef 1)
  store i32 %93, ptr %12, align 4, !tbaa !12
  br label %94

94:                                               ; preds = %101, %91
  %95 = load ptr, ptr %6, align 8, !tbaa !33
  %96 = load ptr, ptr %7, align 8, !tbaa !10
  %97 = load i32, ptr %12, align 4, !tbaa !12
  %98 = load ptr, ptr %11, align 8, !tbaa !10
  %99 = call i32 @Gia_ManMulFindNextEntry2(ptr noundef %95, ptr noundef %96, i32 noundef %97, ptr noundef %98, ptr noundef %9, ptr noundef %10)
  %100 = icmp ne i32 %99, 0
  br i1 %100, label %101, label %106

101:                                              ; preds = %94
  %102 = load ptr, ptr %8, align 8, !tbaa !10
  %103 = load i32, ptr %9, align 4, !tbaa !12
  %104 = load i32, ptr %10, align 4, !tbaa !12
  call void @Vec_IntPushTwo(ptr noundef %102, i32 noundef %103, i32 noundef %104)
  %105 = load i32, ptr %10, align 4, !tbaa !12
  store i32 %105, ptr %12, align 4, !tbaa !12
  br label %94, !llvm.loop !81

106:                                              ; preds = %94
  %107 = load ptr, ptr %11, align 8, !tbaa !10
  call void @Vec_IntFree(ptr noundef %107)
  call void @llvm.lifetime.end.p0(i64 4, ptr %16) #10
  call void @llvm.lifetime.end.p0(i64 4, ptr %15) #10
  call void @llvm.lifetime.end.p0(i64 4, ptr %14) #10
  call void @llvm.lifetime.end.p0(i64 4, ptr %13) #10
  call void @llvm.lifetime.end.p0(i64 4, ptr %12) #10
  call void @llvm.lifetime.end.p0(i64 8, ptr %11) #10
  ret void
}