; Function Attrs: nounwind uwtable
define void @Gia_ManMulFindArg2(ptr noundef readonly captures(none) %0, ptr noundef readonly captures(none) %1, ptr noundef captures(none) initializes((4, 8)) %2, i32 noundef %3, i32 noundef %4) local_unnamed_addr #0 {
.critedge:
  %5 = alloca i32, align 4
  %6 = alloca i32, align 4
  store i32 %3, ptr %5, align 4, !tbaa !29
  store i32 %4, ptr %6, align 4, !tbaa !29
  %7 = tail call ptr @Gia_ManMulFindCounts(ptr noundef %0, ptr noundef %1)
  %8 = getelementptr i8, ptr %7, i64 4
  %.val42 = load i32, ptr %8, align 4, !tbaa !33
  %9 = icmp sgt i32 %.val42, 1
  %10 = getelementptr inbounds nuw i8, ptr %2, i64 4
  store i32 0, ptr %10, align 4, !tbaa !33
  br i1 %9, label %.lr.ph60, label %.critedge2

.lr.ph60:                                         ; preds = %.critedge
  %11 = getelementptr i8, ptr %7, i64 8
  %.val45 = load ptr, ptr %11, align 8, !tbaa !35
  br label %16

12:                                               ; preds = %16
  %indvars.iv.next = add nuw nsw i64 %indvars.iv, 2
  %13 = trunc i64 %indvars.iv.next to i32
  %14 = or disjoint i32 %13, 1
  %15 = icmp slt i32 %14, %.val42
  br i1 %15, label %16, label %.critedge2, !llvm.loop !77

16:                                               ; preds = %.lr.ph60, %12
  %indvars.iv = phi i64 [ 0, %.lr.ph60 ], [ %indvars.iv.next, %12 ]
  %17 = getelementptr inbounds nuw i32, ptr %.val45, i64 %indvars.iv
  %18 = load i32, ptr %17, align 4, !tbaa !29
  %19 = icmp eq i32 %18, %3
  %20 = icmp eq i32 %18, %4
  %or.cond = or i1 %19, %20
  br i1 %or.cond, label %21, label %12

21:                                               ; preds = %16
  %22 = select i1 %19, i32 %4, i32 %3
  %23 = load i32, ptr %2, align 8, !tbaa !34
  %24 = icmp eq i32 %23, 0
  %25 = getelementptr inbounds nuw i8, ptr %2, i64 8
  %26 = load ptr, ptr %25, align 8, !tbaa !35
  br i1 %24, label %27, label %Vec_IntPush.exit

27:                                               ; preds = %21
  %.not9.i.i = icmp eq ptr %26, null
  br i1 %.not9.i.i, label %30, label %28

28:                                               ; preds = %27
  %29 = tail call dereferenceable_or_null(64) ptr @realloc(ptr noundef nonnull %26, i64 noundef 64) #20
  %.pre.pre = load i32, ptr %10, align 4, !tbaa !33
  br label %Vec_IntGrow.exit.i

30:                                               ; preds = %27
  %31 = tail call noalias dereferenceable_or_null(64) ptr @malloc(i64 noundef 64) #21
  br label %Vec_IntGrow.exit.i

Vec_IntGrow.exit.i:                               ; preds = %30, %28
  %.pre = phi i32 [ %.pre.pre, %28 ], [ 0, %30 ]
  %32 = phi ptr [ %29, %28 ], [ %31, %30 ]
  store ptr %32, ptr %25, align 8, !tbaa !35
  store i32 16, ptr %2, align 8, !tbaa !34
  br label %Vec_IntPush.exit

Vec_IntPush.exit:                                 ; preds = %21, %Vec_IntGrow.exit.i
  %33 = phi i32 [ %.pre, %Vec_IntGrow.exit.i ], [ 0, %21 ]
  %34 = phi ptr [ %32, %Vec_IntGrow.exit.i ], [ %26, %21 ]
  %35 = add nsw i32 %33, 1
  store i32 %35, ptr %10, align 4, !tbaa !33
  %36 = sext i32 %33 to i64
  %37 = getelementptr inbounds i32, ptr %34, i64 %36
  store i32 %22, ptr %37, align 4, !tbaa !29
  %38 = load i32, ptr %10, align 4, !tbaa !33
  %39 = load i32, ptr %2, align 8, !tbaa !34
  %40 = icmp eq i32 %38, %39
  br i1 %40, label %41, label %Vec_IntPush.exit54

41:                                               ; preds = %Vec_IntPush.exit
  %42 = icmp slt i32 %38, 16
  br i1 %42, label %Vec_IntGrow.exit.i53, label %45

Vec_IntGrow.exit.i53:                             ; preds = %41
  %43 = getelementptr inbounds nuw i8, ptr %2, i64 8
  %44 = tail call dereferenceable_or_null(64) ptr @realloc(ptr noundef nonnull %34, i64 noundef 64) #20
  store ptr %44, ptr %43, align 8, !tbaa !35
  br label %Vec_IntPush.exit54.sink.split

45:                                               ; preds = %41
  %46 = shl nuw nsw i32 %38, 1
  %47 = getelementptr inbounds nuw i8, ptr %2, i64 8
  %48 = zext nneg i32 %46 to i64
  %49 = shl nuw nsw i64 %48, 2
  %50 = tail call ptr @realloc(ptr noundef nonnull %34, i64 noundef %49) #20
  store ptr %50, ptr %47, align 8, !tbaa !35
  br label %Vec_IntPush.exit54.sink.split

Vec_IntPush.exit54.sink.split:                    ; preds = %45, %Vec_IntGrow.exit.i53
  %.sink = phi i32 [ 16, %Vec_IntGrow.exit.i53 ], [ %46, %45 ]
  %.ph = phi ptr [ %44, %Vec_IntGrow.exit.i53 ], [ %50, %45 ]
  store i32 %.sink, ptr %2, align 8, !tbaa !34
  br label %Vec_IntPush.exit54

Vec_IntPush.exit54:                               ; preds = %Vec_IntPush.exit54.sink.split, %Vec_IntPush.exit
  %51 = phi ptr [ %34, %Vec_IntPush.exit ], [ %.ph, %Vec_IntPush.exit54.sink.split ]
  %52 = load i32, ptr %10, align 4, !tbaa !33
  %53 = add nsw i32 %52, 1
  store i32 %53, ptr %10, align 4, !tbaa !33
  %54 = sext i32 %52 to i64
  %55 = getelementptr inbounds i32, ptr %51, i64 %54
  store i32 %18, ptr %55, align 4, !tbaa !29
  br label %.critedge2

.critedge2:                                       ; preds = %12, %.critedge, %Vec_IntPush.exit54
  %56 = getelementptr i8, ptr %2, i64 8
  %.val43 = load ptr, ptr %56, align 8, !tbaa !35
  %57 = getelementptr inbounds nuw i8, ptr %.val43, i64 4
  %58 = load i32, ptr %57, align 4, !tbaa !29
  %59 = call i32 @Gia_ManMulFindNextEntry2(ptr noundef %0, ptr noundef %1, i32 noundef %58, ptr noundef %7, ptr noundef nonnull %5, ptr noundef nonnull %6)
  %.not61 = icmp eq i32 %59, 0
  br i1 %.not61, label %._crit_edge, label %.lr.ph62

.lr.ph62:                                         ; preds = %.critedge2, %.lr.ph62
  %60 = load i32, ptr %5, align 4, !tbaa !29
  %61 = load i32, ptr %6, align 4, !tbaa !29
  tail call fastcc void @Vec_IntPushTwo(ptr noundef %2, i32 noundef %60, i32 noundef %61)
  %62 = call i32 @Gia_ManMulFindNextEntry2(ptr noundef %0, ptr noundef %1, i32 noundef %61, ptr noundef %7, ptr noundef nonnull %5, ptr noundef nonnull %6)
  %.not = icmp eq i32 %62, 0
  br i1 %.not, label %._crit_edge, label %.lr.ph62, !llvm.loop !78

._crit_edge:                                      ; preds = %.lr.ph62, %.critedge2
  %63 = getelementptr inbounds nuw i8, ptr %7, i64 8
  %64 = load ptr, ptr %63, align 8, !tbaa !35
  %.not.i = icmp eq ptr %64, null
  br i1 %.not.i, label %Vec_IntFree.exit, label %65

65:                                               ; preds = %._crit_edge
  tail call void @free(ptr noundef nonnull %64) #19
  br label %Vec_IntFree.exit

Vec_IntFree.exit:                                 ; preds = %._crit_edge, %65
  tail call void @free(ptr noundef nonnull %7) #19
  ret void
}